target datalayout = "e-m:e-p270:32:32-p271:32:32-p272:64:64-i64:64-i128:128-f80:128-n8:16:32:64-S128"
target triple = "x86_64-pc-linux-gnu"

%"struct.(anonymous namespace)::DumpVisitor" = type <{ i32, i8, [3 x i8] }>
%"struct.(anonymous namespace)::DumpVisitor::CtorArgPrinter" = type { ptr }
%"class.(anonymous namespace)::itanium_demangle::Node.base" = type <{ ptr, i8, i16 }>
%"class.std::initializer_list" = type { ptr, i64 }
%"class.(anonymous namespace)::itanium_demangle::BoolExpr" = type { %"class.(anonymous namespace)::itanium_demangle::Node.base", i8, [4 x i8] }

@.str.3 = private unnamed_addr constant [2 x i8] c"\0A\00", align 1
@.str.4 = private unnamed_addr constant [2 x i8] c" \00", align 1
@stderr = external global ptr, align 8
@.str.5 = private unnamed_addr constant [3 x i8] c"%s\00", align 1
@.str.8 = private unnamed_addr constant [4 x i8] c"%s(\00", align 1
@.str.9 = private unnamed_addr constant [2 x i8] c")\00", align 1
@.str.54 = private unnamed_addr constant [5 x i8] c"true\00", align 1
@.str.55 = private unnamed_addr constant [6 x i8] c"false\00", align 1
@.str.132 = private unnamed_addr constant [9 x i8] c"BoolExpr\00", align 1

; Function Attrs: mustprogress nounwind uwtable
define internal void @_ZN12_GLOBAL__N_111DumpVisitor5printEb(ptr noundef nonnull align 4 dereferenceable(5) %0, i1 noundef zeroext %1) #6 align 2 {
  %3 = alloca ptr, align 8
  %4 = alloca i8, align 1
  store ptr %0, ptr %3, align 8, !tbaa !9
  %5 = zext i1 %1 to i8
  store i8 %5, ptr %4, align 1, !tbaa !209
  %6 = load ptr, ptr %3, align 8
  %7 = load i8, ptr %4, align 1, !tbaa !209, !range !210, !noundef !211
  %8 = trunc i8 %7 to i1
  %9 = select i1 %8, ptr @.str.54, ptr @.str.55
  call void @_ZN12_GLOBAL__N_111DumpVisitor8printStrEPKc(ptr noundef nonnull align 4 dereferenceable(5) %6, ptr noundef %9)
  ret void
}

; Function Attrs: mustprogress nounwind uwtable
define internal void @_ZN12_GLOBAL__N_111DumpVisitor8printStrEPKc(ptr noundef nonnull align 4 dereferenceable(5) %0, ptr noundef %1) #6 align 2 {
  %3 = alloca ptr, align 8
  %4 = alloca ptr, align 8
  store ptr %0, ptr %3, align 8, !tbaa !9
  store ptr %1, ptr %4, align 8, !tbaa !194
  %5 = load ptr, ptr @stderr, align 8, !tbaa !242
  %6 = load ptr, ptr %4, align 8, !tbaa !194
  %7 = call i32 (ptr, ptr, ...) @fprintf(ptr noundef %5, ptr noundef @.str.5, ptr noundef %6) #19
  ret void
}

; Function Attrs: mustprogress nounwind uwtable
define linkonce_odr hidden noundef ptr @_ZNKSt16initializer_listIbE3endB8ne210000Ev(ptr noundef nonnull align 8 dereferenceable(16) %0) #6 comdat align 2 {
  %2 = alloca ptr, align 8
  store ptr %0, ptr %2, align 8, !tbaa !463
  %3 = load ptr, ptr %2, align 8
  %4 = getelementptr inbounds nuw %"class.std::initializer_list", ptr %3, i32 0, i32 0
  %5 = load ptr, ptr %4, align 8, !tbaa !459
  %6 = getelementptr inbounds nuw %"class.std::initializer_list", ptr %3, i32 0, i32 1
  %7 = load i64, ptr %6, align 8, !tbaa !462
  %8 = getelementptr inbounds nuw i8, ptr %5, i64 %7
  ret ptr %8
}

; Function Attrs: mustprogress nounwind uwtable
define linkonce_odr hidden noundef ptr @_ZNKSt16initializer_listIbE5beginB8ne210000Ev(ptr noundef nonnull align 8 dereferenceable(16) %0) #6 comdat align 2 {
  %2 = alloca ptr, align 8
  store ptr %0, ptr %2, align 8, !tbaa !463
  %3 = load ptr, ptr %2, align 8
  %4 = getelementptr inbounds nuw %"class.std::initializer_list", ptr %3, i32 0, i32 0
  %5 = load ptr, ptr %4, align 8, !tbaa !459
  ret ptr %5
}

; Function Attrs: mustprogress nounwind uwtable
define internal noundef zeroext i1 @_ZN12_GLOBAL__N_111DumpVisitor12wantsNewlineEz(...) #6 align 2 {
  ret i1 false
}

; Function Attrs: mustprogress uwtable
define internal void @_ZN12_GLOBAL__N_111DumpVisitor23printWithPendingNewlineIbEEvT_(ptr noundef nonnull align 4 dereferenceable(5) %0, i1 noundef zeroext %1) #3 align 2 {
  %3 = alloca ptr, align 8
  %4 = alloca i8, align 1
  store ptr %0, ptr %3, align 8, !tbaa !9
  %5 = zext i1 %1 to i8
  store i8 %5, ptr %4, align 1, !tbaa !209
  %6 = load ptr, ptr %3, align 8
  %7 = load i8, ptr %4, align 1, !tbaa !209, !range !210, !noundef !211
  %8 = trunc i8 %7 to i1
  call void @_ZN12_GLOBAL__N_111DumpVisitor5printEb(ptr noundef nonnull align 4 dereferenceable(5) %6, i1 noundef zeroext %8)
  %9 = load i8, ptr %4, align 1, !tbaa !209, !range !210, !noundef !211
  %10 = trunc i8 %9 to i1
  %11 = zext i1 %10 to i32
  %12 = call noundef zeroext i1 (...) @_ZN12_GLOBAL__N_111DumpVisitor12wantsNewlineEz(i32 noundef %11)
  br i1 %12, label %13, label %15

13:                                               ; preds = %2
  %14 = getelementptr inbounds nuw %"struct.(anonymous namespace)::DumpVisitor", ptr %6, i32 0, i32 1
  store i8 1, ptr %14, align 4, !tbaa !15
  br label %15

15:                                               ; preds = %13, %2
  ret void
}

; Function Attrs: mustprogress uwtable
define internal void @_ZN12_GLOBAL__N_111DumpVisitor7newLineEv(ptr noundef nonnull align 4 dereferenceable(5) %0) #3 align 2 {
  %2 = alloca ptr, align 8
  %3 = alloca i32, align 4
  store ptr %0, ptr %2, align 8, !tbaa !9
  %4 = load ptr, ptr %2, align 8
  call void @_ZN12_GLOBAL__N_111DumpVisitor8printStrEPKc(ptr noundef nonnull align 4 dereferenceable(5) %4, ptr noundef @.str.3)
  call void @llvm.lifetime.start.p0(i64 4, ptr %3) #19
  store i32 0, ptr %3, align 4, !tbaa !196
  br label %5

5:                                                ; preds = %12, %1
  %6 = load i32, ptr %3, align 4, !tbaa !196
  %7 = getelementptr inbounds nuw %"struct.(anonymous namespace)::DumpVisitor", ptr %4, i32 0, i32 0
  %8 = load i32, ptr %7, align 4, !tbaa !11
  %9 = icmp ne i32 %6, %8
  br i1 %9, label %11, label %10

10:                                               ; preds = %5
  call void @llvm.lifetime.end.p0(i64 4, ptr %3) #19
  br label %15

11:                                               ; preds = %5
  call void @_ZN12_GLOBAL__N_111DumpVisitor8printStrEPKc(ptr noundef nonnull align 4 dereferenceable(5) %4, ptr noundef @.str.4)
  br label %12

12:                                               ; preds = %11
  %13 = load i32, ptr %3, align 4, !tbaa !196
  %14 = add i32 %13, 1
  store i32 %14, ptr %3, align 4, !tbaa !196
  br label %5, !llvm.loop !197

15:                                               ; preds = %10
  %16 = getelementptr inbounds nuw %"struct.(anonymous namespace)::DumpVisitor", ptr %4, i32 0, i32 1
  store i8 0, ptr %16, align 4, !tbaa !15
  ret void
}

; Function Attrs: mustprogress nounwind uwtable
define internal noundef zeroext i1 @_ZN12_GLOBAL__N_111DumpVisitor14anyWantNewlineIJbEEEbDpT_(i1 noundef zeroext %0) #6 align 2 {
  %2 = alloca i1, align 1
  %3 = alloca i8, align 1
  %4 = alloca ptr, align 8
  %5 = alloca %"class.std::initializer_list", align 8
  %6 = alloca [1 x i8], align 1
  %7 = alloca ptr, align 8
  %8 = alloca ptr, align 8
  %9 = alloca i32, align 4
  %10 = alloca i8, align 1
  %11 = zext i1 %0 to i8
  store i8 %11, ptr %3, align 1, !tbaa !209
  call void @llvm.lifetime.start.p0(i64 8, ptr %4) #19
  call void @llvm.lifetime.start.p0(i64 16, ptr %5) #19
  call void @llvm.lifetime.start.p0(i64 1, ptr %6) #19
  %12 = load i8, ptr %3, align 1, !tbaa !209, !range !210, !noundef !211
  %13 = trunc i8 %12 to i1
  %14 = zext i1 %13 to i32
  %15 = call noundef zeroext i1 (...) @_ZN12_GLOBAL__N_111DumpVisitor12wantsNewlineEz(i32 noundef %14)
  %16 = zext i1 %15 to i8
  store i8 %16, ptr %6, align 1, !tbaa !209
  %17 = getelementptr inbounds nuw %"class.std::initializer_list", ptr %5, i32 0, i32 0
  store ptr %6, ptr %17, align 8, !tbaa !459
  %18 = getelementptr inbounds nuw %"class.std::initializer_list", ptr %5, i32 0, i32 1
  store i64 1, ptr %18, align 8, !tbaa !462
  store ptr %5, ptr %4, align 8, !tbaa !463
  call void @llvm.lifetime.start.p0(i64 8, ptr %7) #19
  %19 = load ptr, ptr %4, align 8, !tbaa !463
  %20 = call noundef ptr @_ZNKSt16initializer_listIbE5beginB8ne210000Ev(ptr noundef nonnull align 8 dereferenceable(16) %19) #19
  store ptr %20, ptr %7, align 8, !tbaa !465
  call void @llvm.lifetime.start.p0(i64 8, ptr %8) #19
  %21 = load ptr, ptr %4, align 8, !tbaa !463
  %22 = call noundef ptr @_ZNKSt16initializer_listIbE3endB8ne210000Ev(ptr noundef nonnull align 8 dereferenceable(16) %21) #19
  store ptr %22, ptr %8, align 8, !tbaa !465
  br label %23

23:                                               ; preds = %40, %1
  %24 = load ptr, ptr %7, align 8, !tbaa !465
  %25 = load ptr, ptr %8, align 8, !tbaa !465
  %26 = icmp ne ptr %24, %25
  br i1 %26, label %28, label %27

27:                                               ; preds = %23
  store i32 2, ptr %9, align 4
  br label %43

28:                                               ; preds = %23
  call void @llvm.lifetime.start.p0(i64 1, ptr %10) #19
  %29 = load ptr, ptr %7, align 8, !tbaa !465
  %30 = load i8, ptr %29, align 1, !tbaa !209, !range !210, !noundef !211
  %31 = trunc i8 %30 to i1
  %32 = zext i1 %31 to i8
  store i8 %32, ptr %10, align 1, !tbaa !209
  %33 = load i8, ptr %10, align 1, !tbaa !209, !range !210, !noundef !211
  %34 = trunc i8 %33 to i1
  br i1 %34, label %35, label %36

35:                                               ; preds = %28
  store i1 true, ptr %2, align 1
  store i32 1, ptr %9, align 4
  br label %37

36:                                               ; preds = %28
  store i32 0, ptr %9, align 4
  br label %37

37:                                               ; preds = %36, %35
  call void @llvm.lifetime.end.p0(i64 1, ptr %10) #19
  %38 = load i32, ptr %9, align 4
  switch i32 %38, label %43 [
    i32 0, label %39
  ]

39:                                               ; preds = %37
  br label %40

40:                                               ; preds = %39
  %41 = load ptr, ptr %7, align 8, !tbaa !465
  %42 = getelementptr inbounds nuw i8, ptr %41, i32 1
  store ptr %42, ptr %7, align 8, !tbaa !465
  br label %23

43:                                               ; preds = %37, %27
  call void @llvm.lifetime.end.p0(i64 8, ptr %8) #19
  call void @llvm.lifetime.end.p0(i64 8, ptr %7) #19
  call void @llvm.lifetime.end.p0(i64 1, ptr %6) #19
  call void @llvm.lifetime.end.p0(i64 16, ptr %5) #19
  call void @llvm.lifetime.end.p0(i64 8, ptr %4) #19
  %44 = load i32, ptr %9, align 4
  switch i32 %44, label %48 [
    i32 2, label %45
    i32 1, label %46
  ]

45:                                               ; preds = %43
  store i1 false, ptr %2, align 1
  br label %46

46:                                               ; preds = %45, %43
  %47 = load i1, ptr %2, align 1
  ret i1 %47

48:                                               ; preds = %43
  unreachable
}

; Function Attrs: mustprogress uwtable
define internal void @_ZN12_GLOBAL__N_111DumpVisitor14CtorArgPrinterclIbJEEEvT_DpT0_(ptr noundef nonnull align 8 dereferenceable(8) %0, i1 noundef zeroext %1) #3 align 2 {
  %3 = alloca ptr, align 8
  %4 = alloca i8, align 1
  %5 = alloca [1 x i32], align 4
  store ptr %0, ptr %3, align 8, !tbaa !455
  %6 = zext i1 %1 to i8
  store i8 %6, ptr %4, align 1, !tbaa !209
  %7 = load ptr, ptr %3, align 8
  %8 = load i8, ptr %4, align 1, !tbaa !209, !range !210, !noundef !211
  %9 = trunc i8 %8 to i1
  %10 = call noundef zeroext i1 @_ZN12_GLOBAL__N_111DumpVisitor14anyWantNewlineIJbEEEbDpT_(i1 noundef zeroext %9)
  br i1 %10, label %11, label %14

11:                                               ; preds = %2
  %12 = getelementptr inbounds nuw %"struct.(anonymous namespace)::DumpVisitor::CtorArgPrinter", ptr %7, i32 0, i32 0
  %13 = load ptr, ptr %12, align 8, !tbaa !457
  call void @_ZN12_GLOBAL__N_111DumpVisitor7newLineEv(ptr noundef nonnull align 4 dereferenceable(5) %13)
  br label %14

14:                                               ; preds = %11, %2
  %15 = getelementptr inbounds nuw %"struct.(anonymous namespace)::DumpVisitor::CtorArgPrinter", ptr %7, i32 0, i32 0
  %16 = load ptr, ptr %15, align 8, !tbaa !457
  %17 = load i8, ptr %4, align 1, !tbaa !209, !range !210, !noundef !211
  %18 = trunc i8 %17 to i1
  call void @_ZN12_GLOBAL__N_111DumpVisitor23printWithPendingNewlineIbEEvT_(ptr noundef nonnull align 4 dereferenceable(5) %16, i1 noundef zeroext %18)
  call void @llvm.lifetime.start.p0(i64 4, ptr %5) #19
  call void @llvm.memset.p0.i64(ptr align 4 %5, i8 0, i64 4, i1 false)
  call void @llvm.lifetime.end.p0(i64 4, ptr %5) #19
  ret void
}

; Function Attrs: mustprogress uwtable
define internal void @_ZNK12_GLOBAL__N_116itanium_demangle8BoolExpr5matchINS_11DumpVisitor14CtorArgPrinterEEEvT_(ptr noundef nonnull align 8 dereferenceable(12) %0, ptr %1) #3 align 2 {
  %3 = alloca %"struct.(anonymous namespace)::DumpVisitor::CtorArgPrinter", align 8
  %4 = alloca ptr, align 8
  %5 = getelementptr inbounds nuw %"struct.(anonymous namespace)::DumpVisitor::CtorArgPrinter", ptr %3, i32 0, i32 0
  store ptr %1, ptr %5, align 8
  store ptr %0, ptr %4, align 8, !tbaa !164
  %6 = load ptr, ptr %4, align 8
  %7 = getelementptr inbounds nuw %"class.(anonymous namespace)::itanium_demangle::BoolExpr", ptr %6, i32 0, i32 1
  %8 = load i8, ptr %7, align 1, !tbaa !659, !range !210, !noundef !211
  %9 = trunc i8 %8 to i1
  call void @_ZN12_GLOBAL__N_111DumpVisitor14CtorArgPrinterclIbJEEEvT_DpT0_(ptr noundef nonnull align 8 dereferenceable(8) %3, i1 noundef zeroext %9)
  ret void
}

; Function Attrs: mustprogress nounwind uwtable
define internal noundef ptr @_ZN12_GLOBAL__N_116itanium_demangle8NodeKindINS0_8BoolExprEE4nameEv() #6 align 2 {
  ret ptr @.str.132
}

; Function Attrs: mustprogress uwtable
define internal void @_ZN12_GLOBAL__N_111DumpVisitorclINS_16itanium_demangle8BoolExprEEEvPKT_(ptr noundef nonnull align 4 dereferenceable(5) %0, ptr noundef %1) #3 align 2 {
  %3 = alloca ptr, align 8
  %4 = alloca ptr, align 8
  %5 = alloca %"struct.(anonymous namespace)::DumpVisitor::CtorArgPrinter", align 8
  store ptr %0, ptr %3, align 8, !tbaa !9
  store ptr %1, ptr %4, align 8, !tbaa !164
  %6 = load ptr, ptr %3, align 8
  %7 = getelementptr inbounds nuw %"struct.(anonymous namespace)::DumpVisitor", ptr %6, i32 0, i32 0
  %8 = load i32, ptr %7, align 4, !tbaa !11
  %9 = add i32 %8, 2
  store i32 %9, ptr %7, align 4, !tbaa !11
  %10 = load ptr, ptr @stderr, align 8, !tbaa !242
  %11 = call noundef ptr @_ZN12_GLOBAL__N_116itanium_demangle8NodeKindINS0_8BoolExprEE4nameEv()
  %12 = call i32 (ptr, ptr, ...) @fprintf(ptr noundef %10, ptr noundef @.str.8, ptr noundef %11) #19
  %13 = load ptr, ptr %4, align 8, !tbaa !164
  %14 = getelementptr inbounds nuw %"struct.(anonymous namespace)::DumpVisitor::CtorArgPrinter", ptr %5, i32 0, i32 0
  store ptr %6, ptr %14, align 8, !tbaa !9
  %15 = getelementptr inbounds nuw %"struct.(anonymous namespace)::DumpVisitor::CtorArgPrinter", ptr %5, i32 0, i32 0
  %16 = load ptr, ptr %15, align 8
  call void @_ZNK12_GLOBAL__N_116itanium_demangle8BoolExpr5matchINS_11DumpVisitor14CtorArgPrinterEEEvT_(ptr noundef nonnull align 8 dereferenceable(12) %13, ptr %16)
  %17 = load ptr, ptr @stderr, align 8, !tbaa !242
  %18 = call i32 (ptr, ptr, ...) @fprintf(ptr noundef %17, ptr noundef @.str.9) #19
  %19 = getelementptr inbounds nuw %"struct.(anonymous namespace)::DumpVisitor", ptr %6, i32 0, i32 0
  %20 = load i32, ptr %19, align 4, !tbaa !11
  %21 = sub i32 %20, 2
  store i32 %21, ptr %19, align 4, !tbaa !11
  ret void
}