; Function Attrs: cold mustprogress nofree nounwind uwtable
define internal fastcc void @_ZN12_GLOBAL__N_111DumpVisitorclINS_16itanium_demangle8BoolExprEEEvPKT_(ptr noundef nonnull align 4 captures(none) dereferenceable(5) %0, ptr noundef readonly captures(none) %1) unnamed_addr #21 align 2 {
  %3 = load i32, ptr %0, align 4, !tbaa !4
  %4 = add i32 %3, 2
  store i32 %4, ptr %0, align 4, !tbaa !4
  %5 = load ptr, ptr @stderr, align 8, !tbaa !11
  %6 = tail call i32 (ptr, ptr, ...) @fprintf(ptr noundef %5, ptr noundef nonnull @.str.8, ptr noundef nonnull @.str.132) #36
  %7 = getelementptr i8, ptr %1, i64 11
  %.val = load i8, ptr %7, align 1, !tbaa !409, !range !232, !noundef !233
  %8 = trunc nuw i8 %.val to i1
  %9 = select i1 %8, ptr @.str.54, ptr @.str.55
  %10 = load ptr, ptr @stderr, align 8, !tbaa !11
  %fputs.i.i.i.i.i = tail call i32 @fputs(ptr nonnull readonly %9, ptr %10) #37
  %11 = load ptr, ptr @stderr, align 8, !tbaa !11
  %fputc = tail call i32 @fputc(i32 41, ptr %11)
  %12 = load i32, ptr %0, align 4, !tbaa !4
  %13 = add i32 %12, -2
  store i32 %13, ptr %0, align 4, !tbaa !4
  ret void
}